target datalayout = "e-m:e-p270:32:32-p271:32:32-p272:64:64-i64:64-i128:128-f80:128-n8:16:32:64-S128"
target triple = "x86_64-pc-linux-gnu"

%struct.Abc_Obj_t_ = type { ptr, ptr, i32, i32, %struct.Vec_Int_t_, %struct.Vec_Int_t_, %union.anon, %union.anon.0 }
%struct.Vec_Int_t_ = type { i32, i32, ptr }
%union.anon = type { ptr }
%union.anon.0 = type { ptr }

@.str = private unnamed_addr constant [4 x i8] c"_lo\00", align 1
@.str.1 = private unnamed_addr constant [4 x i8] c"_li\00", align 1

; Function Attrs: inlinehint nounwind uwtable
define internal ptr @Abc_NtkCreateBi(ptr noundef %0) #2 {
  %2 = alloca ptr, align 8
  store ptr %0, ptr %2, align 8, !tbaa !33
  %3 = load ptr, ptr %2, align 8, !tbaa !33
  %4 = call ptr @Abc_NtkCreateObj(ptr noundef %3, i32 noundef 4)
  ret ptr %4
}

; Function Attrs: inlinehint nounwind uwtable
define internal ptr @Abc_NtkCreateLatch(ptr noundef %0) #2 {
  %2 = alloca ptr, align 8
  store ptr %0, ptr %2, align 8, !tbaa !33
  %3 = load ptr, ptr %2, align 8, !tbaa !33
  %4 = call ptr @Abc_NtkCreateObj(ptr noundef %3, i32 noundef 8)
  ret ptr %4
}

; Function Attrs: inlinehint nounwind uwtable
define internal ptr @Abc_NtkCreateBo(ptr noundef %0) #2 {
  %2 = alloca ptr, align 8
  store ptr %0, ptr %2, align 8, !tbaa !33
  %3 = load ptr, ptr %2, align 8, !tbaa !33
  %4 = call ptr @Abc_NtkCreateObj(ptr noundef %3, i32 noundef 5)
  ret ptr %4
}

; Function Attrs: nounwind uwtable
define ptr @Abc_NtkAddLatch(ptr noundef %0, ptr noundef %1, i32 noundef %2) #0 {
  %4 = alloca ptr, align 8
  %5 = alloca ptr, align 8
  %6 = alloca i32, align 4
  %7 = alloca ptr, align 8
  %8 = alloca ptr, align 8
  %9 = alloca ptr, align 8
  store ptr %0, ptr %4, align 8, !tbaa !33
  store ptr %1, ptr %5, align 8, !tbaa !3
  store i32 %2, ptr %6, align 4, !tbaa !31
  call void @llvm.lifetime.start.p0(i64 8, ptr %7) #7
  call void @llvm.lifetime.start.p0(i64 8, ptr %8) #7
  call void @llvm.lifetime.start.p0(i64 8, ptr %9) #7
  %10 = load ptr, ptr %4, align 8, !tbaa !33
  %11 = call ptr @Abc_NtkCreateBo(ptr noundef %10)
  store ptr %11, ptr %7, align 8, !tbaa !3
  %12 = load ptr, ptr %4, align 8, !tbaa !33
  %13 = call ptr @Abc_NtkCreateLatch(ptr noundef %12)
  store ptr %13, ptr %8, align 8, !tbaa !3
  %14 = load ptr, ptr %4, align 8, !tbaa !33
  %15 = call ptr @Abc_NtkCreateBi(ptr noundef %14)
  store ptr %15, ptr %9, align 8, !tbaa !3
  %16 = load ptr, ptr %7, align 8, !tbaa !3
  %17 = load ptr, ptr %8, align 8, !tbaa !3
  %18 = call ptr @Abc_ObjName(ptr noundef %17)
  %19 = call ptr @Abc_ObjAssignName(ptr noundef %16, ptr noundef %18, ptr noundef @.str)
  %20 = load ptr, ptr %9, align 8, !tbaa !3
  %21 = load ptr, ptr %8, align 8, !tbaa !3
  %22 = call ptr @Abc_ObjName(ptr noundef %21)
  %23 = call ptr @Abc_ObjAssignName(ptr noundef %20, ptr noundef %22, ptr noundef @.str.1)
  %24 = load ptr, ptr %7, align 8, !tbaa !3
  %25 = load ptr, ptr %8, align 8, !tbaa !3
  call void @Abc_ObjAddFanin(ptr noundef %24, ptr noundef %25)
  %26 = load ptr, ptr %8, align 8, !tbaa !3
  %27 = load ptr, ptr %9, align 8, !tbaa !3
  call void @Abc_ObjAddFanin(ptr noundef %26, ptr noundef %27)
  %28 = load ptr, ptr %5, align 8, !tbaa !3
  %29 = icmp ne ptr %28, null
  br i1 %29, label %30, label %33

30:                                               ; preds = %3
  %31 = load ptr, ptr %9, align 8, !tbaa !3
  %32 = load ptr, ptr %5, align 8, !tbaa !3
  call void @Abc_ObjAddFanin(ptr noundef %31, ptr noundef %32)
  br label %33

33:                                               ; preds = %30, %3
  %34 = load i32, ptr %6, align 4, !tbaa !31
  %35 = zext i32 %34 to i64
  %36 = inttoptr i64 %35 to ptr
  %37 = load ptr, ptr %8, align 8, !tbaa !3
  %38 = getelementptr inbounds nuw %struct.Abc_Obj_t_, ptr %37, i32 0, i32 6
  store ptr %36, ptr %38, align 8, !tbaa !47
  %39 = load ptr, ptr %7, align 8, !tbaa !3
  call void @llvm.lifetime.end.p0(i64 8, ptr %9) #7
  call void @llvm.lifetime.end.p0(i64 8, ptr %8) #7
  call void @llvm.lifetime.end.p0(i64 8, ptr %7) #7
  ret ptr %39
}