; Function Attrs: nounwind uwtable
define ptr @Abc_NtkAddLatch(ptr noundef %0, ptr noundef %1, i32 noundef %2) local_unnamed_addr #2 {
  %4 = tail call ptr @Abc_NtkCreateObj(ptr noundef %0, i32 noundef 5) #12
  %5 = tail call ptr @Abc_NtkCreateObj(ptr noundef %0, i32 noundef 8) #12
  %6 = tail call ptr @Abc_NtkCreateObj(ptr noundef %0, i32 noundef 4) #12
  %7 = tail call ptr @Abc_ObjName(ptr noundef %5) #12
  %8 = tail call ptr @Abc_ObjAssignName(ptr noundef %4, ptr noundef %7, ptr noundef nonnull @.str) #12
  %9 = tail call ptr @Abc_ObjName(ptr noundef %5) #12
  %10 = tail call ptr @Abc_ObjAssignName(ptr noundef %6, ptr noundef %9, ptr noundef nonnull @.str.1) #12
  tail call void @Abc_ObjAddFanin(ptr noundef %4, ptr noundef %5) #12
  tail call void @Abc_ObjAddFanin(ptr noundef %5, ptr noundef %6) #12
  %.not = icmp eq ptr %1, null
  br i1 %.not, label %12, label %11

11:                                               ; preds = %3
  tail call void @Abc_ObjAddFanin(ptr noundef %6, ptr noundef nonnull %1) #12
  br label %12

12:                                               ; preds = %11, %3
  %13 = zext i32 %2 to i64
  %14 = inttoptr i64 %13 to ptr
  %15 = getelementptr inbounds nuw i8, ptr %5, i64 56
  store ptr %14, ptr %15, align 8, !tbaa !42
  ret ptr %4
}